; ModuleID = 'source-C-CXX/11/1261.cpp'
source_filename = "source-C-CXX/11/1261.cpp"
target datalayout = "e-m:e-p270:32:32-p271:32:32-p272:64:64-i64:64-f80:128-n8:16:32:64-S128"
target triple = "x86_64-pc-linux-gnu"

%"class.std::ios_base::Init" = type { i8 }
%"class.std::basic_istream" = type { i32 (...)**, i64, %"class.std::basic_ios" }
%"class.std::basic_ios" = type { %"class.std::ios_base", %"class.std::basic_ostream"*, i8, i8, %"class.std::basic_streambuf"*, %"class.std::ctype"*, %"class.std::num_put"*, %"class.std::num_get"* }
%"class.std::ios_base" = type { i32 (...)**, i64, i64, i32, i32, i32, %"struct.std::ios_base::_Callback_list"*, %"struct.std::ios_base::_Words", [8 x %"struct.std::ios_base::_Words"], i32, %"struct.std::ios_base::_Words"*, %"class.std::locale" }
%"struct.std::ios_base::_Callback_list" = type { %"struct.std::ios_base::_Callback_list"*, void (i32, %"class.std::ios_base"*, i32)*, i32, i32 }
%"struct.std::ios_base::_Words" = type { i8*, i64 }
%"class.std::locale" = type { %"class.std::locale::_Impl"* }
%"class.std::locale::_Impl" = type { i32, %"class.std::locale::facet"**, i64, %"class.std::locale::facet"**, i8** }
%"class.std::locale::facet" = type <{ i32 (...)**, i32, [4 x i8] }>
%"class.std::basic_ostream" = type { i32 (...)**, %"class.std::basic_ios" }
%"class.std::basic_streambuf" = type { i32 (...)**, i8*, i8*, i8*, i8*, i8*, i8*, %"class.std::locale" }
%"class.std::ctype" = type <{ %"class.std::locale::facet.base", [4 x i8], %struct.__locale_struct*, i8, [7 x i8], i32*, i32*, i16*, i8, [256 x i8], [256 x i8], i8, [6 x i8] }>
%"class.std::locale::facet.base" = type <{ i32 (...)**, i32 }>
%struct.__locale_struct = type { [13 x %struct.__locale_data*], i16*, i32*, i32*, [13 x i8*] }
%struct.__locale_data = type opaque
%"class.std::num_put" = type { %"class.std::locale::facet.base", [4 x i8] }
%"class.std::num_get" = type { %"class.std::locale::facet.base", [4 x i8] }

@_ZStL8__ioinit = internal global %"class.std::ios_base::Init" zeroinitializer, align 1
@__dso_handle = external hidden global i8
@_ZSt3cin = external global %"class.std::basic_istream", align 8
@_ZSt4cout = external global %"class.std::basic_ostream", align 8
@llvm.global_ctors = appending global [1 x { i32, void ()*, i8* }] [{ i32, void ()*, i8* } { i32 65535, void ()* @_GLOBAL__sub_I_1261.cpp, i8* null }]

declare void @_ZNSt8ios_base4InitC1Ev(%"class.std::ios_base::Init"* nonnull align 1 dereferenceable(1)) unnamed_addr #0

; Function Attrs: nounwind
declare void @_ZNSt8ios_base4InitD1Ev(%"class.std::ios_base::Init"* nonnull align 1 dereferenceable(1)) unnamed_addr #1

; Function Attrs: nofree nounwind
declare i32 @__cxa_atexit(void (i8*)*, i8*, i8*) local_unnamed_addr #2

; Function Attrs: mustprogress norecurse sspstrong uwtable
define dso_local i32 @main() local_unnamed_addr #3 {
  %1 = alloca [100000 x i32], align 16
  %2 = bitcast [100000 x i32]* %1 to i8*
  call void @llvm.lifetime.start.p0i8(i64 400000, i8* nonnull %2) #7
  %3 = getelementptr inbounds [100000 x i32], [100000 x i32]* %1, i64 0, i64 0
  br label %4

4:                                                ; preds = %0, %91
  %5 = phi i32 [ 0, %0 ], [ %93, %91 ]
  %6 = sext i32 %5 to i64
  %7 = getelementptr inbounds [100000 x i32], [100000 x i32]* %1, i64 0, i64 %6
  %8 = call nonnull align 8 dereferenceable(16) %"class.std::basic_istream"* @_ZNSirsERi(%"class.std::basic_istream"* nonnull align 8 dereferenceable(16) @_ZSt3cin, i32* nonnull align 4 dereferenceable(4) %7)
  %9 = load i32, i32* %7, align 4, !tbaa !5
  switch i32 %9, label %91 [
    i32 -1, label %95
    i32 0, label %10
  ]

10:                                               ; preds = %4
  %11 = icmp sgt i32 %5, 0
  br i1 %11, label %12, label %59

12:                                               ; preds = %10
  %13 = zext i32 %5 to i64
  %14 = and i64 %13, 1
  %15 = icmp eq i32 %5, 1
  %16 = and i64 %13, 4294967294
  %17 = icmp eq i64 %14, 0
  br label %18

18:                                               ; preds = %12, %55
  %19 = phi i64 [ 0, %12 ], [ %57, %55 ]
  %20 = phi i32 [ 0, %12 ], [ %56, %55 ]
  %21 = getelementptr inbounds [100000 x i32], [100000 x i32]* %1, i64 0, i64 %19
  br i1 %15, label %41, label %22

22:                                               ; preds = %18, %102
  %23 = phi i64 [ %104, %102 ], [ 0, %18 ]
  %24 = phi i32 [ %103, %102 ], [ %20, %18 ]
  %25 = phi i64 [ %105, %102 ], [ %16, %18 ]
  %26 = getelementptr inbounds [100000 x i32], [100000 x i32]* %1, i64 0, i64 %23
  %27 = load i32, i32* %26, align 8, !tbaa !5
  %28 = icmp eq i32 %27, 0
  br i1 %28, label %35, label %29

29:                                               ; preds = %22
  %30 = load i32, i32* %21, align 4, !tbaa !5
  %31 = shl nsw i32 %27, 1
  %32 = icmp eq i32 %30, %31
  %33 = zext i1 %32 to i32
  %34 = add nsw i32 %24, %33
  br label %35

35:                                               ; preds = %29, %22
  %36 = phi i32 [ %24, %22 ], [ %34, %29 ]
  %37 = or i64 %23, 1
  %38 = getelementptr inbounds [100000 x i32], [100000 x i32]* %1, i64 0, i64 %37
  %39 = load i32, i32* %38, align 4, !tbaa !5
  %40 = icmp eq i32 %39, 0
  br i1 %40, label %102, label %96

41:                                               ; preds = %102, %18
  %42 = phi i32 [ undef, %18 ], [ %103, %102 ]
  %43 = phi i64 [ 0, %18 ], [ %104, %102 ]
  %44 = phi i32 [ %20, %18 ], [ %103, %102 ]
  br i1 %17, label %55, label %45

45:                                               ; preds = %41
  %46 = getelementptr inbounds [100000 x i32], [100000 x i32]* %1, i64 0, i64 %43
  %47 = load i32, i32* %46, align 4, !tbaa !5
  %48 = icmp eq i32 %47, 0
  br i1 %48, label %55, label %49

49:                                               ; preds = %45
  %50 = load i32, i32* %21, align 4, !tbaa !5
  %51 = shl nsw i32 %47, 1
  %52 = icmp eq i32 %50, %51
  %53 = zext i1 %52 to i32
  %54 = add nsw i32 %44, %53
  br label %55

55:                                               ; preds = %49, %45, %41
  %56 = phi i32 [ %42, %41 ], [ %44, %45 ], [ %54, %49 ]
  %57 = add nuw nsw i64 %19, 1
  %58 = icmp eq i64 %57, %13
  br i1 %58, label %59, label %18, !llvm.loop !9

59:                                               ; preds = %55, %10
  %60 = phi i32 [ 0, %10 ], [ %56, %55 ]
  %61 = call nonnull align 8 dereferenceable(8) %"class.std::basic_ostream"* @_ZNSolsEi(%"class.std::basic_ostream"* nonnull align 8 dereferenceable(8) @_ZSt4cout, i32 %60)
  %62 = bitcast %"class.std::basic_ostream"* %61 to i8**
  %63 = load i8*, i8** %62, align 8, !tbaa !11
  %64 = getelementptr i8, i8* %63, i64 -24
  %65 = bitcast i8* %64 to i64*
  %66 = load i64, i64* %65, align 8
  %67 = bitcast %"class.std::basic_ostream"* %61 to i8*
  %68 = add nsw i64 %66, 240
  %69 = getelementptr inbounds i8, i8* %67, i64 %68
  %70 = bitcast i8* %69 to %"class.std::ctype"**
  %71 = load %"class.std::ctype"*, %"class.std::ctype"** %70, align 8, !tbaa !13
  %72 = icmp eq %"class.std::ctype"* %71, null
  br i1 %72, label %73, label %74

73:                                               ; preds = %59
  call void @_ZSt16__throw_bad_castv() #8
  unreachable

74:                                               ; preds = %59
  %75 = getelementptr inbounds %"class.std::ctype", %"class.std::ctype"* %71, i64 0, i32 8
  %76 = load i8, i8* %75, align 8, !tbaa !17
  %77 = icmp eq i8 %76, 0
  br i1 %77, label %81, label %78

78:                                               ; preds = %74
  %79 = getelementptr inbounds %"class.std::ctype", %"class.std::ctype"* %71, i64 0, i32 9, i64 10
  %80 = load i8, i8* %79, align 1, !tbaa !19
  br label %87

81:                                               ; preds = %74
  call void @_ZNKSt5ctypeIcE13_M_widen_initEv(%"class.std::ctype"* nonnull align 8 dereferenceable(570) %71)
  %82 = bitcast %"class.std::ctype"* %71 to i8 (%"class.std::ctype"*, i8)***
  %83 = load i8 (%"class.std::ctype"*, i8)**, i8 (%"class.std::ctype"*, i8)*** %82, align 8, !tbaa !11
  %84 = getelementptr inbounds i8 (%"class.std::ctype"*, i8)*, i8 (%"class.std::ctype"*, i8)** %83, i64 6
  %85 = load i8 (%"class.std::ctype"*, i8)*, i8 (%"class.std::ctype"*, i8)** %84, align 8
  %86 = call signext i8 %85(%"class.std::ctype"* nonnull align 8 dereferenceable(570) %71, i8 signext 10)
  br label %87

87:                                               ; preds = %78, %81
  %88 = phi i8 [ %80, %78 ], [ %86, %81 ]
  %89 = call nonnull align 8 dereferenceable(8) %"class.std::basic_ostream"* @_ZNSo3putEc(%"class.std::basic_ostream"* nonnull align 8 dereferenceable(8) %61, i8 signext %88)
  %90 = call nonnull align 8 dereferenceable(8) %"class.std::basic_ostream"* @_ZNSo5flushEv(%"class.std::basic_ostream"* nonnull align 8 dereferenceable(8) %89)
  store i32 0, i32* %3, align 16, !tbaa !5
  br label %91

91:                                               ; preds = %4, %87
  %92 = phi i32 [ 0, %87 ], [ %5, %4 ]
  %93 = add nsw i32 %92, 1
  %94 = icmp slt i32 %92, 99999
  br i1 %94, label %4, label %95, !llvm.loop !20

95:                                               ; preds = %4, %91
  call void @llvm.lifetime.end.p0i8(i64 400000, i8* nonnull %2) #7
  ret i32 0

96:                                               ; preds = %35
  %97 = load i32, i32* %21, align 4, !tbaa !5
  %98 = shl nsw i32 %39, 1
  %99 = icmp eq i32 %97, %98
  %100 = zext i1 %99 to i32
  %101 = add nsw i32 %36, %100
  br label %102

102:                                              ; preds = %96, %35
  %103 = phi i32 [ %36, %35 ], [ %101, %96 ]
  %104 = add nuw nsw i64 %23, 2
  %105 = add i64 %25, -2
  %106 = icmp eq i64 %105, 0
  br i1 %106, label %41, label %22, !llvm.loop !21
}

; Function Attrs: argmemonly mustprogress nofree nosync nounwind willreturn
declare void @llvm.lifetime.start.p0i8(i64 immarg, i8* nocapture) #4

declare nonnull align 8 dereferenceable(16) %"class.std::basic_istream"* @_ZNSirsERi(%"class.std::basic_istream"* nonnull align 8 dereferenceable(16), i32* nonnull align 4 dereferenceable(4)) local_unnamed_addr #0

declare nonnull align 8 dereferenceable(8) %"class.std::basic_ostream"* @_ZNSolsEi(%"class.std::basic_ostream"* nonnull align 8 dereferenceable(8), i32) local_unnamed_addr #0

; Function Attrs: argmemonly mustprogress nofree nosync nounwind willreturn
declare void @llvm.lifetime.end.p0i8(i64 immarg, i8* nocapture) #4

declare nonnull align 8 dereferenceable(8) %"class.std::basic_ostream"* @_ZNSo3putEc(%"class.std::basic_ostream"* nonnull align 8 dereferenceable(8), i8 signext) local_unnamed_addr #0

declare nonnull align 8 dereferenceable(8) %"class.std::basic_ostream"* @_ZNSo5flushEv(%"class.std::basic_ostream"* nonnull align 8 dereferenceable(8)) local_unnamed_addr #0

; Function Attrs: noreturn
declare void @_ZSt16__throw_bad_castv() local_unnamed_addr #5

declare void @_ZNKSt5ctypeIcE13_M_widen_initEv(%"class.std::ctype"* nonnull align 8 dereferenceable(570)) local_unnamed_addr #0

; Function Attrs: sspstrong uwtable
define internal void @_GLOBAL__sub_I_1261.cpp() #6 section ".text.startup" {
  tail call void @_ZNSt8ios_base4InitC1Ev(%"class.std::ios_base::Init"* nonnull align 1 dereferenceable(1) @_ZStL8__ioinit)
  %1 = tail call i32 @__cxa_atexit(void (i8*)* bitcast (void (%"class.std::ios_base::Init"*)* @_ZNSt8ios_base4InitD1Ev to void (i8*)*), i8* getelementptr inbounds (%"class.std::ios_base::Init", %"class.std::ios_base::Init"* @_ZStL8__ioinit, i64 0, i32 0), i8* nonnull @__dso_handle) #7
  ret void
}


!llvm.module.flags = !{!0, !1, !2, !3}
!llvm.ident = !{!4}

!0 = !{i32 1, !"wchar_size", i32 4}
!1 = !{i32 7, !"PIC Level", i32 2}
!2 = !{i32 7, !"PIE Level", i32 2}
!3 = !{i32 7, !"uwtable", i32 1}
!4 = !{!"clang version 13.0.0"}
!5 = !{!6, !6, i64 0}
!6 = !{!"int", !7, i64 0}
!7 = !{!"omnipotent char", !8, i64 0}
!8 = !{!"Simple C++ TBAA"}
!9 = distinct !{!9, !10}
!10 = !{!"llvm.loop.mustprogress"}
!11 = !{!12, !12, i64 0}
!12 = !{!"vtable pointer", !8, i64 0}
!13 = !{!14, !15, i64 240}
!14 = !{!"_ZTSSt9basic_iosIcSt11char_traitsIcEE", !15, i64 216, !7, i64 224, !16, i64 225, !15, i64 232, !15, i64 240, !15, i64 248, !15, i64 256}
!15 = !{!"any pointer", !7, i64 0}
!16 = !{!"bool", !7, i64 0}
!17 = !{!18, !7, i64 56}
!18 = !{!"_ZTSSt5ctypeIcE", !15, i64 16, !16, i64 24, !15, i64 32, !15, i64 40, !15, i64 48, !7, i64 56, !7, i64 57, !7, i64 313, !7, i64 569}
!19 = !{!7, !7, i64 0}
!20 = distinct !{!20, !10}
!21 = distinct !{!21, !10}
